; Function Attrs: mustprogress uwtable
define dso_local void @_ZN10cmDebugger30cmDebuggerPipeConnection_POSIX5closeEv(ptr nocapture noundef nonnull align 8 dereferenceable(216) %0) unnamed_addr #0 align 2 {
  %2 = getelementptr inbounds i8, ptr %0, i64 98
  %char0.i = load i8, ptr %2, align 2
  %.not.i = icmp eq i8 %char0.i, 0
  br i1 %.not.i, label %_ZN10cmDebugger30cmDebuggerPipeConnection_POSIX12close_listenEv.exit, label %3

3:                                                ; preds = %1
  %4 = tail call i32 @unlink(ptr noundef nonnull %2) #25
  store i8 0, ptr %2, align 2
  br label %_ZN10cmDebugger30cmDebuggerPipeConnection_POSIX12close_listenEv.exit

_ZN10cmDebugger30cmDebuggerPipeConnection_POSIX12close_listenEv.exit: ; preds = %1, %3
  %5 = getelementptr inbounds i8, ptr %0, i64 208
  %6 = load i32, ptr %5, align 8
  %7 = tail call i32 @close(i32 noundef %6)
  store i32 -1, ptr %5, align 8
  %8 = getelementptr inbounds i8, ptr %0, i64 212
  %9 = load i32, ptr %8, align 4
  %10 = tail call i32 @close(i32 noundef %9)
  store i32 -1, ptr %8, align 4
  ret void
}